target datalayout = "e-m:e-p270:32:32-p271:32:32-p272:64:64-i64:64-i128:128-f80:128-n8:16:32:64-S128"
target triple = "x86_64-unknown-linux-gnu"

%"class.absl::container_internal::CommonFields" = type { ptr, ptr, i64, i64 }
%"class.absl::container_internal::HashtablezInfoHandle" = type { i8 }
%"struct.absl::container_internal::PolicyFunctions" = type { i64, ptr, ptr, ptr }

@_ZN4absl18container_internal11kEmptyGroupE = dso_local constant [32 x i8] c"\00\00\00\00\00\00\00\00\00\00\00\00\00\00\00\00\FF\80\80\80\80\80\80\80\80\80\80\80\80\80\80\80", align 16

; Function Attrs: mustprogress nounwind uwtable
define linkonce_odr dso_local noundef i64 @_ZN4absl18container_internal13ControlOffsetEb(i1 noundef zeroext %has_infoz) #1 comdat {
entry:
  %has_infoz.addr = alloca i8, align 1
  %frombool = zext i1 %has_infoz to i8
  store i8 %frombool, ptr %has_infoz.addr, align 1
  %0 = load i8, ptr %has_infoz.addr, align 1
  %tobool = trunc i8 %0 to i1
  %cond = select i1 %tobool, i64 1, i64 0
  %add = add i64 %cond, 8
  ret i64 %add
}

; Function Attrs: mustprogress uwtable
define linkonce_odr dso_local noundef ptr @_ZNK4absl18container_internal12CommonFields19backing_array_startEv(ptr noundef nonnull align 8 dereferenceable(32) %this) #0 comdat align 2 {
entry:
  %this.addr = alloca ptr, align 8
  store ptr %this, ptr %this.addr, align 8
  %this1 = load ptr, ptr %this.addr, align 8
  %call = call noundef ptr @_ZNK4absl18container_internal12CommonFields7controlEv(ptr noundef nonnull align 8 dereferenceable(32) %this1)
  %call2 = call noundef zeroext i1 @_ZNK4absl18container_internal12CommonFields9has_infozEv(ptr noundef nonnull align 8 dereferenceable(32) %this1)
  %call3 = call noundef i64 @_ZN4absl18container_internal13ControlOffsetEb(i1 noundef zeroext %call2)
  %idx.neg = sub i64 0, %call3
  %add.ptr = getelementptr inbounds i8, ptr %call, i64 %idx.neg
  ret ptr %add.ptr
}

; Function Attrs: mustprogress uwtable
define linkonce_odr dso_local noundef zeroext i1 @_ZNK4absl18container_internal12CommonFields9has_infozEv(ptr noundef nonnull align 8 dereferenceable(32) %this) #0 comdat align 2 {
entry:
  %this.addr = alloca ptr, align 8
  store ptr %this, ptr %this.addr, align 8
  %this1 = load ptr, ptr %this.addr, align 8
  %size_ = getelementptr inbounds %"class.absl::container_internal::CommonFields", ptr %this1, i32 0, i32 3
  %0 = load i64, ptr %size_, align 8
  %call = call noundef i64 @_ZN4absl18container_internal12CommonFields12HasInfozMaskEv()
  %and = and i64 %0, %call
  %cmp = icmp ne i64 %and, 0
  ret i1 %cmp
}

; Function Attrs: mustprogress nounwind uwtable
define linkonce_odr dso_local void @_ZN4absl18container_internal12CommonFields15set_growth_leftEm(ptr noundef nonnull align 8 dereferenceable(32) %this, i64 noundef %gl) #1 comdat align 2 {
entry:
  %this.addr = alloca ptr, align 8
  %gl.addr = alloca i64, align 8
  %gl_ptr = alloca ptr, align 8
  store ptr %this, ptr %this.addr, align 8
  store i64 %gl, ptr %gl.addr, align 8
  %this1 = load ptr, ptr %this.addr, align 8
  %call = call noundef ptr @_ZNK4absl18container_internal12CommonFields7controlEv(ptr noundef nonnull align 8 dereferenceable(32) %this1)
  %add.ptr = getelementptr inbounds i64, ptr %call, i64 -1
  store ptr %add.ptr, ptr %gl_ptr, align 8
  %0 = load i64, ptr %gl.addr, align 8
  %1 = load ptr, ptr %gl_ptr, align 8
  store i64 %0, ptr %1, align 8
  ret void
}

; Function Attrs: mustprogress uwtable
define linkonce_odr dso_local noundef i64 @_ZNK4absl18container_internal12CommonFields4sizeEv(ptr noundef nonnull align 8 dereferenceable(32) %this) #0 comdat align 2 {
entry:
  %this.addr = alloca ptr, align 8
  store ptr %this, ptr %this.addr, align 8
  %this1 = load ptr, ptr %this.addr, align 8
  %size_ = getelementptr inbounds %"class.absl::container_internal::CommonFields", ptr %this1, i32 0, i32 3
  %0 = load i64, ptr %size_, align 8
  %call = call noundef i64 @_ZN4absl18container_internal12CommonFields13HasInfozShiftEv()
  %shr = lshr i64 %0, %call
  ret i64 %shr
}

; Function Attrs: mustprogress nounwind uwtable
define linkonce_odr dso_local noundef i64 @_ZN4absl18container_internal16CapacityToGrowthEm(i64 noundef %capacity) #1 comdat {
entry:
  %capacity.addr = alloca i64, align 8
  store i64 %capacity, ptr %capacity.addr, align 8
  %0 = load i64, ptr %capacity.addr, align 8
  %1 = load i64, ptr %capacity.addr, align 8
  %div = udiv i64 %1, 8
  %sub = sub i64 %0, %div
  ret i64 %sub
}

; Function Attrs: mustprogress nounwind uwtable
define linkonce_odr dso_local void @_ZN4absl18container_internal27SanitizerPoisonMemoryRegionEPKvm(ptr noundef %m, i64 noundef %s) #1 comdat {
entry:
  %m.addr = alloca ptr, align 8
  %s.addr = alloca i64, align 8
  store ptr %m, ptr %m.addr, align 8
  store i64 %s, ptr %s.addr, align 8
  ret void
}

; Function Attrs: mustprogress nounwind uwtable
define linkonce_odr dso_local noundef ptr @_ZNK4absl18container_internal12CommonFields10slot_arrayEv(ptr noundef nonnull align 8 dereferenceable(32) %this) #1 comdat align 2 {
entry:
  %this.addr = alloca ptr, align 8
  store ptr %this, ptr %this.addr, align 8
  %this1 = load ptr, ptr %this.addr, align 8
  %slots_ = getelementptr inbounds %"class.absl::container_internal::CommonFields", ptr %this1, i32 0, i32 1
  %0 = load ptr, ptr %slots_, align 8
  ret ptr %0
}

; Function Attrs: mustprogress nounwind uwtable
define linkonce_odr dso_local noundef i64 @_ZN4absl18container_internal14NumClonedBytesEv() #1 comdat {
entry:
  ret i64 15
}

; Function Attrs: mustprogress nounwind uwtable
define linkonce_odr dso_local noundef ptr @_ZNK4absl18container_internal12CommonFields7controlEv(ptr noundef nonnull align 8 dereferenceable(32) %this) #1 comdat align 2 {
entry:
  %this.addr = alloca ptr, align 8
  store ptr %this, ptr %this.addr, align 8
  %this1 = load ptr, ptr %this.addr, align 8
  %control_ = getelementptr inbounds %"class.absl::container_internal::CommonFields", ptr %this1, i32 0, i32 0
  %0 = load ptr, ptr %control_, align 8
  ret ptr %0
}

; Function Attrs: mustprogress nounwind uwtable
define linkonce_odr dso_local noundef i64 @_ZN4absl18container_internal12CommonFields12HasInfozMaskEv() #1 comdat align 2 {
entry:
  %call = call noundef i64 @_ZN4absl18container_internal12CommonFields13HasInfozShiftEv()
  %shl = shl i64 1, %call
  %sub = sub i64 %shl, 1
  ret i64 %sub
}

; Function Attrs: mustprogress nounwind uwtable
define linkonce_odr dso_local noundef i64 @_ZN4absl18container_internal12CommonFields13HasInfozShiftEv() #1 comdat align 2 {
entry:
  ret i64 1
}

; Function Attrs: mustprogress nounwind uwtable
define linkonce_odr dso_local void @_ZN4absl18container_internal12CommonFields12set_capacityEm(ptr noundef nonnull align 8 dereferenceable(32) %this, i64 noundef %c) #1 comdat align 2 {
entry:
  %this.addr = alloca ptr, align 8
  %c.addr = alloca i64, align 8
  store ptr %this, ptr %this.addr, align 8
  store i64 %c, ptr %c.addr, align 8
  %this1 = load ptr, ptr %this.addr, align 8
  %0 = load i64, ptr %c.addr, align 8
  %capacity_ = getelementptr inbounds %"class.absl::container_internal::CommonFields", ptr %this1, i32 0, i32 2
  store i64 %0, ptr %capacity_, align 8
  ret void
}

; Function Attrs: mustprogress nounwind uwtable
define linkonce_odr dso_local void @_ZN4absl18container_internal12CommonFields9set_slotsEPv(ptr noundef nonnull align 8 dereferenceable(32) %this, ptr noundef %s) #1 comdat align 2 {
entry:
  %this.addr = alloca ptr, align 8
  %s.addr = alloca ptr, align 8
  store ptr %this, ptr %this.addr, align 8
  store ptr %s, ptr %s.addr, align 8
  %this1 = load ptr, ptr %this.addr, align 8
  %0 = load ptr, ptr %s.addr, align 8
  %slots_ = getelementptr inbounds %"class.absl::container_internal::CommonFields", ptr %this1, i32 0, i32 1
  store ptr %0, ptr %slots_, align 8
  ret void
}

; Function Attrs: mustprogress nounwind uwtable
define linkonce_odr dso_local void @_ZN4absl18container_internal34CommonFieldsGenerationInfoDisabled18set_generation_ptrEPh(ptr noundef nonnull align 1 dereferenceable(1) %this, ptr noundef %0) #1 comdat align 2 {
entry:
  %this.addr = alloca ptr, align 8
  %.addr = alloca ptr, align 8
  store ptr %this, ptr %this.addr, align 8
  store ptr %0, ptr %.addr, align 8
  ret void
}

; Function Attrs: mustprogress nounwind uwtable
define dso_local noundef ptr @_ZN4absl18container_internal15EmptyGenerationEv() #1 {
entry:
  ret ptr null
}

; Function Attrs: mustprogress nounwind uwtable
define linkonce_odr dso_local void @_ZN4absl18container_internal12CommonFields11set_controlEPNS0_6ctrl_tE(ptr noundef nonnull align 8 dereferenceable(32) %this, ptr noundef %c) #1 comdat align 2 {
entry:
  %this.addr = alloca ptr, align 8
  %c.addr = alloca ptr, align 8
  store ptr %this, ptr %this.addr, align 8
  store ptr %c, ptr %c.addr, align 8
  %this1 = load ptr, ptr %this.addr, align 8
  %0 = load ptr, ptr %c.addr, align 8
  %control_ = getelementptr inbounds %"class.absl::container_internal::CommonFields", ptr %this1, i32 0, i32 0
  store ptr %0, ptr %control_, align 8
  ret void
}

; Function Attrs: mustprogress nounwind uwtable
define linkonce_odr dso_local noundef ptr @_ZN4absl18container_internal10EmptyGroupEv() #1 comdat {
entry:
  %0 = getelementptr inbounds i8, ptr @_ZN4absl18container_internal11kEmptyGroupE, i64 16
  ret ptr %0
}

; Function Attrs: mustprogress nounwind uwtable
define linkonce_odr dso_local void @_ZN4absl18container_internal20HashtablezInfoHandle24RecordClearedReservationEv(ptr noundef nonnull align 1 dereferenceable(1) %this) #1 comdat align 2 {
entry:
  %this.addr = alloca ptr, align 8
  store ptr %this, ptr %this.addr, align 8
  ret void
}

; Function Attrs: mustprogress nounwind uwtable
define linkonce_odr dso_local void @_ZN4absl18container_internal20HashtablezInfoHandle20RecordStorageChangedEmm(ptr noundef nonnull align 1 dereferenceable(1) %this, i64 noundef %0, i64 noundef %1) #1 comdat align 2 {
entry:
  %this.addr = alloca ptr, align 8
  %.addr = alloca i64, align 8
  %.addr1 = alloca i64, align 8
  store ptr %this, ptr %this.addr, align 8
  store i64 %0, ptr %.addr, align 8
  store i64 %1, ptr %.addr1, align 8
  ret void
}

; Function Attrs: mustprogress nounwind uwtable
define linkonce_odr dso_local noundef i64 @_ZNK4absl18container_internal12CommonFields8capacityEv(ptr noundef nonnull align 8 dereferenceable(32) %this) #1 comdat align 2 {
entry:
  %this.addr = alloca ptr, align 8
  store ptr %this, ptr %this.addr, align 8
  %this1 = load ptr, ptr %this.addr, align 8
  %capacity_ = getelementptr inbounds %"class.absl::container_internal::CommonFields", ptr %this1, i32 0, i32 2
  %0 = load i64, ptr %capacity_, align 8
  ret i64 %0
}

; Function Attrs: mustprogress uwtable
define linkonce_odr dso_local void @_ZN4absl18container_internal12CommonFields5infozEv(ptr noundef nonnull align 8 dereferenceable(32) %this) #0 comdat align 2 {
entry:
  %this.addr = alloca ptr, align 8
  store ptr %this, ptr %this.addr, align 8
  %this1 = load ptr, ptr %this.addr, align 8
  %call = call noundef zeroext i1 @_ZNK4absl18container_internal12CommonFields9has_infozEv(ptr noundef nonnull align 8 dereferenceable(32) %this1)
  br i1 %call, label %cond.true, label %cond.false

cond.true:                                        ; preds = %entry
  %call2 = call noundef ptr @_ZNK4absl18container_internal12CommonFields19backing_array_startEv(ptr noundef nonnull align 8 dereferenceable(32) %this1)
  br label %cond.end

cond.false:                                       ; preds = %entry
  br label %cond.end

cond.end:                                         ; preds = %cond.false, %cond.true
  ret void
}

; Function Attrs: mustprogress uwtable
define linkonce_odr dso_local void @_ZN4absl18container_internal15ResetGrowthLeftERNS0_12CommonFieldsE(ptr noundef nonnull align 8 dereferenceable(32) %common) #0 comdat {
entry:
  %common.addr = alloca ptr, align 8
  store ptr %common, ptr %common.addr, align 8
  %0 = load ptr, ptr %common.addr, align 8
  %1 = load ptr, ptr %common.addr, align 8
  %call = call noundef i64 @_ZNK4absl18container_internal12CommonFields8capacityEv(ptr noundef nonnull align 8 dereferenceable(32) %1)
  %call1 = call noundef i64 @_ZN4absl18container_internal16CapacityToGrowthEm(i64 noundef %call)
  %2 = load ptr, ptr %common.addr, align 8
  %call2 = call noundef i64 @_ZNK4absl18container_internal12CommonFields4sizeEv(ptr noundef nonnull align 8 dereferenceable(32) %2)
  %sub = sub i64 %call1, %call2
  call void @_ZN4absl18container_internal12CommonFields15set_growth_leftEm(ptr noundef nonnull align 8 dereferenceable(32) %0, i64 noundef %sub)
  ret void
}

; Function Attrs: mustprogress nounwind uwtable
define linkonce_odr dso_local void @_ZN4absl18container_internal9ResetCtrlERNS0_12CommonFieldsEm(ptr noundef nonnull align 8 dereferenceable(32) %common, i64 noundef %slot_size) #1 comdat {
entry:
  %common.addr = alloca ptr, align 8
  %slot_size.addr = alloca i64, align 8
  %capacity = alloca i64, align 8
  %ctrl = alloca ptr, align 8
  store ptr %common, ptr %common.addr, align 8
  store i64 %slot_size, ptr %slot_size.addr, align 8
  %0 = load ptr, ptr %common.addr, align 8
  %call = call noundef i64 @_ZNK4absl18container_internal12CommonFields8capacityEv(ptr noundef nonnull align 8 dereferenceable(32) %0)
  store i64 %call, ptr %capacity, align 8
  %1 = load ptr, ptr %common.addr, align 8
  %call1 = call noundef ptr @_ZNK4absl18container_internal12CommonFields7controlEv(ptr noundef nonnull align 8 dereferenceable(32) %1)
  store ptr %call1, ptr %ctrl, align 8
  %2 = load ptr, ptr %ctrl, align 8
  %3 = load i64, ptr %capacity, align 8
  %add = add i64 %3, 1
  %call2 = call noundef i64 @_ZN4absl18container_internal14NumClonedBytesEv()
  %add3 = add i64 %add, %call2
  call void @llvm.memset.p0.i64(ptr align 1 %2, i8 -128, i64 %add3, i1 false)
  %4 = load ptr, ptr %ctrl, align 8
  %5 = load i64, ptr %capacity, align 8
  %arrayidx = getelementptr inbounds i8, ptr %4, i64 %5
  store i8 -1, ptr %arrayidx, align 1
  %6 = load ptr, ptr %common.addr, align 8
  %call4 = call noundef ptr @_ZNK4absl18container_internal12CommonFields10slot_arrayEv(ptr noundef nonnull align 8 dereferenceable(32) %6)
  %7 = load i64, ptr %slot_size.addr, align 8
  %8 = load i64, ptr %capacity, align 8
  %mul = mul i64 %7, %8
  call void @_ZN4absl18container_internal27SanitizerPoisonMemoryRegionEPKvm(ptr noundef %call4, i64 noundef %mul)
  ret void
}

; Function Attrs: mustprogress nounwind uwtable
define linkonce_odr dso_local void @_ZN4absl18container_internal12CommonFields8set_sizeEm(ptr noundef nonnull align 8 dereferenceable(32) %this, i64 noundef %s) #1 comdat align 2 {
entry:
  %this.addr = alloca ptr, align 8
  %s.addr = alloca i64, align 8
  store ptr %this, ptr %this.addr, align 8
  store i64 %s, ptr %s.addr, align 8
  %this1 = load ptr, ptr %this.addr, align 8
  %0 = load i64, ptr %s.addr, align 8
  %call = call noundef i64 @_ZN4absl18container_internal12CommonFields13HasInfozShiftEv()
  %shl = shl i64 %0, %call
  %size_ = getelementptr inbounds %"class.absl::container_internal::CommonFields", ptr %this1, i32 0, i32 3
  %1 = load i64, ptr %size_, align 8
  %call2 = call noundef i64 @_ZN4absl18container_internal12CommonFields12HasInfozMaskEv()
  %and = and i64 %1, %call2
  %or = or i64 %shl, %and
  %size_3 = getelementptr inbounds %"class.absl::container_internal::CommonFields", ptr %this1, i32 0, i32 3
  store i64 %or, ptr %size_3, align 8
  ret void
}

; Function Attrs: mustprogress uwtable
define dso_local void @_ZN4absl18container_internal17ClearBackingArrayERNS0_12CommonFieldsERKNS0_15PolicyFunctionsEb(ptr noundef nonnull align 8 dereferenceable(32) %c, ptr noundef nonnull align 8 dereferenceable(32) %policy, i1 noundef zeroext %reuse) #0 {
entry:
  %c.addr = alloca ptr, align 8
  %policy.addr = alloca ptr, align 8
  %reuse.addr = alloca i8, align 1
  %ref.tmp = alloca %"class.absl::container_internal::HashtablezInfoHandle", align 1
  %ref.tmp1 = alloca %"class.absl::container_internal::HashtablezInfoHandle", align 1
  %ref.tmp3 = alloca %"class.absl::container_internal::HashtablezInfoHandle", align 1
  store ptr %c, ptr %c.addr, align 8
  store ptr %policy, ptr %policy.addr, align 8
  %frombool = zext i1 %reuse to i8
  store i8 %frombool, ptr %reuse.addr, align 1
  %0 = load ptr, ptr %c.addr, align 8
  call void @_ZN4absl18container_internal12CommonFields8set_sizeEm(ptr noundef nonnull align 8 dereferenceable(32) %0, i64 noundef 0)
  %1 = load i8, ptr %reuse.addr, align 1
  %tobool = trunc i8 %1 to i1
  br i1 %tobool, label %if.then, label %if.else

if.then:                                          ; preds = %entry
  %2 = load ptr, ptr %c.addr, align 8
  %3 = load ptr, ptr %policy.addr, align 8
  %slot_size = getelementptr inbounds %"struct.absl::container_internal::PolicyFunctions", ptr %3, i32 0, i32 0
  %4 = load i64, ptr %slot_size, align 8
  call void @_ZN4absl18container_internal9ResetCtrlERNS0_12CommonFieldsEm(ptr noundef nonnull align 8 dereferenceable(32) %2, i64 noundef %4)
  %5 = load ptr, ptr %c.addr, align 8
  call void @_ZN4absl18container_internal15ResetGrowthLeftERNS0_12CommonFieldsE(ptr noundef nonnull align 8 dereferenceable(32) %5)
  %6 = load ptr, ptr %c.addr, align 8
  call void @_ZN4absl18container_internal12CommonFields5infozEv(ptr noundef nonnull align 8 dereferenceable(32) %6)
  %7 = load ptr, ptr %c.addr, align 8
  %call = call noundef i64 @_ZNK4absl18container_internal12CommonFields8capacityEv(ptr noundef nonnull align 8 dereferenceable(32) %7)
  call void @_ZN4absl18container_internal20HashtablezInfoHandle20RecordStorageChangedEmm(ptr noundef nonnull align 1 dereferenceable(1) %ref.tmp, i64 noundef 0, i64 noundef %call)
  br label %if.end

if.else:                                          ; preds = %entry
  %8 = load ptr, ptr %c.addr, align 8
  call void @_ZN4absl18container_internal12CommonFields5infozEv(ptr noundef nonnull align 8 dereferenceable(32) %8)
  call void @_ZN4absl18container_internal20HashtablezInfoHandle24RecordClearedReservationEv(ptr noundef nonnull align 1 dereferenceable(1) %ref.tmp1)
  %9 = load ptr, ptr %c.addr, align 8
  call void @_ZN4absl18container_internal12CommonFields5infozEv(ptr noundef nonnull align 8 dereferenceable(32) %9)
  call void @_ZN4absl18container_internal20HashtablezInfoHandle20RecordStorageChangedEmm(ptr noundef nonnull align 1 dereferenceable(1) %ref.tmp3, i64 noundef 0, i64 noundef 0)
  %10 = load ptr, ptr %policy.addr, align 8
  %dealloc = getelementptr inbounds %"struct.absl::container_internal::PolicyFunctions", ptr %10, i32 0, i32 3
  %11 = load ptr, ptr %dealloc, align 8
  %12 = load ptr, ptr %c.addr, align 8
  %13 = load ptr, ptr %policy.addr, align 8
  call void %11(ptr noundef nonnull align 8 dereferenceable(32) %12, ptr noundef nonnull align 8 dereferenceable(32) %13)
  %14 = load ptr, ptr %c.addr, align 8
  %call5 = call noundef ptr @_ZN4absl18container_internal10EmptyGroupEv()
  call void @_ZN4absl18container_internal12CommonFields11set_controlEPNS0_6ctrl_tE(ptr noundef nonnull align 8 dereferenceable(32) %14, ptr noundef %call5)
  %15 = load ptr, ptr %c.addr, align 8
  %call6 = call noundef ptr @_ZN4absl18container_internal15EmptyGenerationEv()
  call void @_ZN4absl18container_internal34CommonFieldsGenerationInfoDisabled18set_generation_ptrEPh(ptr noundef nonnull align 1 dereferenceable(1) %15, ptr noundef %call6)
  %16 = load ptr, ptr %c.addr, align 8
  call void @_ZN4absl18container_internal12CommonFields9set_slotsEPv(ptr noundef nonnull align 8 dereferenceable(32) %16, ptr noundef null)
  %17 = load ptr, ptr %c.addr, align 8
  call void @_ZN4absl18container_internal12CommonFields12set_capacityEm(ptr noundef nonnull align 8 dereferenceable(32) %17, i64 noundef 0)
  br label %if.end

if.end:                                           ; preds = %if.else, %if.then
  ret void
}