; Function Attrs: mustprogress uwtable
define dso_local void @_ZN4absl18container_internal17ClearBackingArrayERNS0_12CommonFieldsERKNS0_15PolicyFunctionsEb(ptr noundef nonnull align 8 dereferenceable(32) %c, ptr noundef nonnull align 8 dereferenceable(32) %policy, i1 noundef zeroext %reuse) local_unnamed_addr #8 {
entry:
  %size_.i = getelementptr inbounds nuw i8, ptr %c, i64 24
  %0 = load i64, ptr %size_.i, align 8
  %and.i = and i64 %0, 1
  store i64 %and.i, ptr %size_.i, align 8
  br i1 %reuse, label %if.then, label %if.else

if.then:                                          ; preds = %entry
  %capacity_.i.i = getelementptr inbounds nuw i8, ptr %c, i64 16
  %1 = load i64, ptr %capacity_.i.i, align 8
  %2 = load ptr, ptr %c, align 8
  %add3.i = add i64 %1, 16
  tail call void @llvm.memset.p0.i64(ptr align 1 %2, i8 -128, i64 %add3.i, i1 false)
  %arrayidx.i = getelementptr inbounds i8, ptr %2, i64 %1
  store i8 -1, ptr %arrayidx.i, align 1
  %3 = load i64, ptr %capacity_.i.i, align 8
  %div2.i.i = lshr i64 %3, 3
  %4 = load i64, ptr %size_.i, align 8
  %shr.i.i = lshr i64 %4, 1
  %5 = add nuw i64 %div2.i.i, %shr.i.i
  %sub.i = sub i64 %3, %5
  %6 = load ptr, ptr %c, align 8
  %add.ptr.i.i = getelementptr inbounds i8, ptr %6, i64 -8
  store i64 %sub.i, ptr %add.ptr.i.i, align 8
  br label %if.end

if.else:                                          ; preds = %entry
  %dealloc = getelementptr inbounds nuw i8, ptr %policy, i64 24
  %7 = load ptr, ptr %dealloc, align 8
  tail call void %7(ptr noundef nonnull align 8 dereferenceable(32) %c, ptr noundef nonnull align 8 dereferenceable(32) %policy)
  store ptr getelementptr inbounds nuw (i8, ptr @_ZN4absl18container_internal11kEmptyGroupE, i64 16), ptr %c, align 8
  %slots_.i = getelementptr inbounds nuw i8, ptr %c, i64 8
  tail call void @llvm.memset.p0.i64(ptr noundef nonnull align 8 dereferenceable(16) %slots_.i, i8 0, i64 16, i1 false)
  br label %if.end

if.end:                                           ; preds = %if.else, %if.then
  ret void
}